target datalayout = "e-m:e-p270:32:32-p271:32:32-p272:64:64-i64:64-i128:128-f80:128-n8:16:32:64-S128"
target triple = "x86_64-pc-linux-gnu"

; Function Attrs: mustprogress nounwind uwtable
define noundef i32 @_ZN8triggers9trigger_t15legalize_actionEmmm(i64 noundef %0, i64 noundef %1, i64 noundef %2) #4 align 2 {
  %4 = alloca i64, align 8
  %5 = alloca i64, align 8
  %6 = alloca i64, align 8
  %7 = alloca i64, align 8
  store i64 %0, ptr %4, align 8, !tbaa !16
  store i64 %1, ptr %5, align 8, !tbaa !16
  store i64 %2, ptr %6, align 8, !tbaa !16
  call void @llvm.lifetime.start.p0(i64 8, ptr %7) #3
  %8 = load i64, ptr %4, align 8, !tbaa !16
  %9 = load i64, ptr %5, align 8, !tbaa !16
  %10 = and i64 %8, %9
  %11 = load i64, ptr %5, align 8, !tbaa !16
  %12 = load i64, ptr %5, align 8, !tbaa !16
  %13 = shl i64 %12, 1
  %14 = xor i64 %13, -1
  %15 = and i64 %11, %14
  %16 = udiv i64 %10, %15
  store i64 %16, ptr %7, align 8, !tbaa !16
  %17 = load i64, ptr %7, align 8, !tbaa !16
  %18 = icmp ugt i64 %17, 4
  br i1 %18, label %33, label %19

19:                                               ; preds = %3
  %20 = load i64, ptr %7, align 8, !tbaa !16
  %21 = icmp eq i64 %20, 1
  br i1 %21, label %22, label %34

22:                                               ; preds = %19
  %23 = load i64, ptr %4, align 8, !tbaa !16
  %24 = load i64, ptr %6, align 8, !tbaa !16
  %25 = and i64 %23, %24
  %26 = load i64, ptr %6, align 8, !tbaa !16
  %27 = load i64, ptr %6, align 8, !tbaa !16
  %28 = shl i64 %27, 1
  %29 = xor i64 %28, -1
  %30 = and i64 %26, %29
  %31 = udiv i64 %25, %30
  %32 = icmp eq i64 %31, 0
  br i1 %32, label %33, label %34

33:                                               ; preds = %22, %3
  br label %37

34:                                               ; preds = %22, %19
  %35 = load i64, ptr %7, align 8, !tbaa !16
  %36 = trunc i64 %35 to i32
  br label %37

37:                                               ; preds = %34, %33
  %38 = phi i32 [ 0, %33 ], [ %36, %34 ]
  call void @llvm.lifetime.end.p0(i64 8, ptr %7) #3
  ret i32 %38
}