; Function Attrs: mustprogress nofree norecurse nosync nounwind willreturn memory(none) uwtable
define noundef range(i32 0, 5) i32 @_ZN8triggers9trigger_t15legalize_actionEmmm(i64 noundef %0, i64 noundef %1, i64 noundef %2) local_unnamed_addr #5 align 2 {
  %4 = and i64 %1, %0
  %5 = shl i64 %1, 1
  %6 = xor i64 %5, -1
  %7 = and i64 %1, %6
  %8 = udiv i64 %4, %7
  %9 = icmp ugt i64 %8, 4
  br i1 %9, label %20, label %10

10:                                               ; preds = %3
  %11 = icmp eq i64 %8, 1
  br i1 %11, label %12, label %18

12:                                               ; preds = %10
  %13 = and i64 %2, %0
  %14 = shl i64 %2, 1
  %15 = xor i64 %14, -1
  %16 = and i64 %2, %15
  %17 = icmp ugt i64 %16, %13
  br i1 %17, label %20, label %18

18:                                               ; preds = %12, %10
  %19 = trunc nuw nsw i64 %8 to i32
  br label %20

20:                                               ; preds = %3, %12, %18
  %21 = phi i32 [ %19, %18 ], [ 0, %12 ], [ 0, %3 ]
  ret i32 %21
}